; ModuleID = '46/137.cpp'
source_filename = "46/137.cpp"
target datalayout = "e-m:e-p270:32:32-p271:32:32-p272:64:64-i64:64-f80:128-n8:16:32:64-S128"
target triple = "x86_64-pc-linux-gnu"

%"class.std::ios_base::Init" = type { i8 }
%"class.std::basic_istream" = type { i32 (...)**, i64, %"class.std::basic_ios" }
%"class.std::basic_ios" = type { %"class.std::ios_base", %"class.std::basic_ostream"*, i8, i8, %"class.std::basic_streambuf"*, %"class.std::ctype"*, %"class.std::num_put"*, %"class.std::num_get"* }
%"class.std::ios_base" = type { i32 (...)**, i64, i64, i32, i32, i32, %"struct.std::ios_base::_Callback_list"*, %"struct.std::ios_base::_Words", [8 x %"struct.std::ios_base::_Words"], i32, %"struct.std::ios_base::_Words"*, %"class.std::locale" }
%"struct.std::ios_base::_Callback_list" = type { %"struct.std::ios_base::_Callback_list"*, void (i32, %"class.std::ios_base"*, i32)*, i32, i32 }
%"struct.std::ios_base::_Words" = type { i8*, i64 }
%"class.std::locale" = type { %"class.std::locale::_Impl"* }
%"class.std::locale::_Impl" = type { i32, %"class.std::locale::facet"**, i64, %"class.std::locale::facet"**, i8** }
%"class.std::locale::facet" = type <{ i32 (...)**, i32, [4 x i8] }>
%"class.std::basic_ostream" = type { i32 (...)**, %"class.std::basic_ios" }
%"class.std::basic_streambuf" = type { i32 (...)**, i8*, i8*, i8*, i8*, i8*, i8*, %"class.std::locale" }
%"class.std::ctype" = type <{ %"class.std::locale::facet.base", [4 x i8], %struct.__locale_struct*, i8, [7 x i8], i32*, i32*, i16*, i8, [256 x i8], [256 x i8], i8, [6 x i8] }>
%"class.std::locale::facet.base" = type <{ i32 (...)**, i32 }>
%struct.__locale_struct = type { [13 x %struct.__locale_data*], i16*, i32*, i32*, [13 x i8*] }
%struct.__locale_data = type opaque
%"class.std::num_put" = type { %"class.std::locale::facet.base", [4 x i8] }
%"class.std::num_get" = type { %"class.std::locale::facet.base", [4 x i8] }

@_ZStL8__ioinit = internal global %"class.std::ios_base::Init" zeroinitializer, align 1
@__dso_handle = external hidden global i8
@_ZSt3cin = external dso_local global %"class.std::basic_istream", align 8
@_ZSt4cout = external dso_local global %"class.std::basic_ostream", align 8
@llvm.global_ctors = appending global [1 x { i32, void ()*, i8* }] [{ i32, void ()*, i8* } { i32 65535, void ()* @_GLOBAL__sub_I_137.cpp, i8* null }]

; Function Attrs: noinline uwtable
define internal void @__cxx_global_var_init() #0 section ".text.startup" {
  call void @_ZNSt8ios_base4InitC1Ev(%"class.std::ios_base::Init"* @_ZStL8__ioinit)
  %1 = call i32 @__cxa_atexit(void (i8*)* bitcast (void (%"class.std::ios_base::Init"*)* @_ZNSt8ios_base4InitD1Ev to void (i8*)*), i8* getelementptr inbounds (%"class.std::ios_base::Init", %"class.std::ios_base::Init"* @_ZStL8__ioinit, i32 0, i32 0), i8* @__dso_handle) #3
  ret void
}

declare dso_local void @_ZNSt8ios_base4InitC1Ev(%"class.std::ios_base::Init"*) unnamed_addr #1

; Function Attrs: nounwind
declare dso_local void @_ZNSt8ios_base4InitD1Ev(%"class.std::ios_base::Init"*) unnamed_addr #2

; Function Attrs: nounwind
declare dso_local i32 @__cxa_atexit(void (i8*)*, i8*, i8*) #3

; Function Attrs: noinline norecurse uwtable
define dso_local i32 @main() #4 {
  %1 = alloca i32, align 4
  %2 = alloca i32, align 4
  %3 = alloca i32, align 4
  %4 = alloca [100 x [100 x i32]], align 16
  %5 = alloca i32, align 4
  %6 = alloca i32, align 4
  %7 = alloca i32, align 4
  %8 = alloca i32, align 4
  %9 = alloca i32, align 4
  %10 = alloca i32, align 4
  %11 = alloca i32, align 4
  %12 = alloca i32, align 4
  %13 = alloca i32, align 4
  store i32 0, i32* %1, align 4
  store i32 1, i32* %7, align 4
  %14 = call dereferenceable(280) %"class.std::basic_istream"* @_ZNSirsERi(%"class.std::basic_istream"* @_ZSt3cin, i32* dereferenceable(4) %2)
  %15 = call dereferenceable(280) %"class.std::basic_istream"* @_ZNSirsERi(%"class.std::basic_istream"* %14, i32* dereferenceable(4) %3)
  store i32 0, i32* %8, align 4
  %16 = load i32, i32* %2, align 4
  %17 = sub nsw i32 %16, 1
  store i32 %17, i32* %9, align 4
  store i32 0, i32* %10, align 4
  %18 = load i32, i32* %3, align 4
  %19 = sub nsw i32 %18, 1
  store i32 %19, i32* %11, align 4
  store i32 0, i32* %12, align 4
  store i32 0, i32* %13, align 4
  store i32 0, i32* %5, align 4
  br label %20

20:                                               ; preds = %41, %0
  %21 = load i32, i32* %5, align 4
  %22 = load i32, i32* %2, align 4
  %23 = icmp slt i32 %21, %22
  br i1 %23, label %24, label %44

24:                                               ; preds = %20
  store i32 0, i32* %6, align 4
  br label %25

25:                                               ; preds = %37, %24
  %26 = load i32, i32* %6, align 4
  %27 = load i32, i32* %3, align 4
  %28 = icmp slt i32 %26, %27
  br i1 %28, label %29, label %40

29:                                               ; preds = %25
  %30 = load i32, i32* %5, align 4
  %31 = sext i32 %30 to i64
  %32 = getelementptr inbounds [100 x [100 x i32]], [100 x [100 x i32]]* %4, i64 0, i64 %31
  %33 = load i32, i32* %6, align 4
  %34 = sext i32 %33 to i64
  %35 = getelementptr inbounds [100 x i32], [100 x i32]* %32, i64 0, i64 %34
  %36 = call dereferenceable(280) %"class.std::basic_istream"* @_ZNSirsERi(%"class.std::basic_istream"* @_ZSt3cin, i32* dereferenceable(4) %35)
  br label %37

37:                                               ; preds = %29
  %38 = load i32, i32* %6, align 4
  %39 = add nsw i32 %38, 1
  store i32 %39, i32* %6, align 4
  br label %25

40:                                               ; preds = %25
  br label %41

41:                                               ; preds = %40
  %42 = load i32, i32* %5, align 4
  %43 = add nsw i32 %42, 1
  store i32 %43, i32* %5, align 4
  br label %20

44:                                               ; preds = %20
  store i32 0, i32* %5, align 4
  br label %45

45:                                               ; preds = %128, %44
  %46 = load i32, i32* %5, align 4
  %47 = load i32, i32* %2, align 4
  %48 = load i32, i32* %3, align 4
  %49 = mul nsw i32 %47, %48
  %50 = icmp slt i32 %46, %49
  br i1 %50, label %51, label %131

51:                                               ; preds = %45
  %52 = load i32, i32* %13, align 4
  %53 = sext i32 %52 to i64
  %54 = getelementptr inbounds [100 x [100 x i32]], [100 x [100 x i32]]* %4, i64 0, i64 %53
  %55 = load i32, i32* %12, align 4
  %56 = sext i32 %55 to i64
  %57 = getelementptr inbounds [100 x i32], [100 x i32]* %54, i64 0, i64 %56
  %58 = load i32, i32* %57, align 4
  %59 = call dereferenceable(272) %"class.std::basic_ostream"* @_ZNSolsEi(%"class.std::basic_ostream"* @_ZSt4cout, i32 %58)
  %60 = call dereferenceable(272) %"class.std::basic_ostream"* @_ZNSolsEPFRSoS_E(%"class.std::basic_ostream"* %59, %"class.std::basic_ostream"* (%"class.std::basic_ostream"*)* @_ZSt4endlIcSt11char_traitsIcEERSt13basic_ostreamIT_T0_ES6_)
  %61 = load i32, i32* %7, align 4
  %62 = icmp eq i32 %61, 1
  br i1 %62, label %63, label %77

63:                                               ; preds = %51
  %64 = load i32, i32* %12, align 4
  %65 = add nsw i32 %64, 1
  %66 = load i32, i32* %11, align 4
  %67 = icmp sgt i32 %65, %66
  br i1 %67, label %68, label %73

68:                                               ; preds = %63
  store i32 2, i32* %7, align 4
  %69 = load i32, i32* %13, align 4
  %70 = add nsw i32 %69, 1
  store i32 %70, i32* %13, align 4
  %71 = load i32, i32* %8, align 4
  %72 = add nsw i32 %71, 1
  store i32 %72, i32* %8, align 4
  br label %76

73:                                               ; preds = %63
  %74 = load i32, i32* %12, align 4
  %75 = add nsw i32 %74, 1
  store i32 %75, i32* %12, align 4
  br label %76

76:                                               ; preds = %73, %68
  br label %127

77:                                               ; preds = %51
  %78 = load i32, i32* %7, align 4
  %79 = icmp eq i32 %78, 2
  br i1 %79, label %80, label %94

80:                                               ; preds = %77
  %81 = load i32, i32* %13, align 4
  %82 = add nsw i32 %81, 1
  %83 = load i32, i32* %9, align 4
  %84 = icmp sgt i32 %82, %83
  br i1 %84, label %85, label %90

85:                                               ; preds = %80
  store i32 3, i32* %7, align 4
  %86 = load i32, i32* %12, align 4
  %87 = add nsw i32 %86, -1
  store i32 %87, i32* %12, align 4
  %88 = load i32, i32* %11, align 4
  %89 = add nsw i32 %88, -1
  store i32 %89, i32* %11, align 4
  br label %93

90:                                               ; preds = %80
  %91 = load i32, i32* %13, align 4
  %92 = add nsw i32 %91, 1
  store i32 %92, i32* %13, align 4
  br label %93

93:                                               ; preds = %90, %85
  br label %126

94:                                               ; preds = %77
  %95 = load i32, i32* %7, align 4
  %96 = icmp eq i32 %95, 3
  br i1 %96, label %97, label %111

97:                                               ; preds = %94
  %98 = load i32, i32* %12, align 4
  %99 = sub nsw i32 %98, 1
  %100 = load i32, i32* %10, align 4
  %101 = icmp slt i32 %99, %100
  br i1 %101, label %102, label %107

102:                                              ; preds = %97
  store i32 4, i32* %7, align 4
  %103 = load i32, i32* %13, align 4
  %104 = add nsw i32 %103, -1
  store i32 %104, i32* %13, align 4
  %105 = load i32, i32* %9, align 4
  %106 = add nsw i32 %105, -1
  store i32 %106, i32* %9, align 4
  br label %110

107:                                              ; preds = %97
  %108 = load i32, i32* %12, align 4
  %109 = add nsw i32 %108, -1
  store i32 %109, i32* %12, align 4
  br label %110

110:                                              ; preds = %107, %102
  br label %125

111:                                              ; preds = %94
  %112 = load i32, i32* %13, align 4
  %113 = sub nsw i32 %112, 1
  %114 = load i32, i32* %8, align 4
  %115 = icmp slt i32 %113, %114
  br i1 %115, label %116, label %121

116:                                              ; preds = %111
  store i32 1, i32* %7, align 4
  %117 = load i32, i32* %12, align 4
  %118 = add nsw i32 %117, 1
  store i32 %118, i32* %12, align 4
  %119 = load i32, i32* %10, align 4
  %120 = add nsw i32 %119, 1
  store i32 %120, i32* %10, align 4
  br label %124

121:                                              ; preds = %111
  %122 = load i32, i32* %13, align 4
  %123 = add nsw i32 %122, -1
  store i32 %123, i32* %13, align 4
  br label %124

124:                                              ; preds = %121, %116
  br label %125

125:                                              ; preds = %124, %110
  br label %126

126:                                              ; preds = %125, %93
  br label %127

127:                                              ; preds = %126, %76
  br label %128

128:                                              ; preds = %127
  %129 = load i32, i32* %5, align 4
  %130 = add nsw i32 %129, 1
  store i32 %130, i32* %5, align 4
  br label %45

131:                                              ; preds = %45
  ret i32 0
}

declare dso_local dereferenceable(280) %"class.std::basic_istream"* @_ZNSirsERi(%"class.std::basic_istream"*, i32* dereferenceable(4)) #1

declare dso_local dereferenceable(272) %"class.std::basic_ostream"* @_ZNSolsEi(%"class.std::basic_ostream"*, i32) #1

declare dso_local dereferenceable(272) %"class.std::basic_ostream"* @_ZNSolsEPFRSoS_E(%"class.std::basic_ostream"*, %"class.std::basic_ostream"* (%"class.std::basic_ostream"*)*) #1

declare dso_local dereferenceable(272) %"class.std::basic_ostream"* @_ZSt4endlIcSt11char_traitsIcEERSt13basic_ostreamIT_T0_ES6_(%"class.std::basic_ostream"* dereferenceable(272)) #1

; Function Attrs: noinline uwtable
define internal void @_GLOBAL__sub_I_137.cpp() #0 section ".text.startup" {
  call void @__cxx_global_var_init()
  ret void
}


!llvm.module.flags = !{!0}
!llvm.ident = !{!1}

!0 = !{i32 1, !"wchar_size", i32 4}
!1 = !{!"clang version 10.0.0-4ubuntu1 "}
