; ModuleID = 'source-C-CXX/45/137.cpp'
source_filename = "source-C-CXX/45/137.cpp"
target datalayout = "e-m:e-p270:32:32-p271:32:32-p272:64:64-i64:64-f80:128-n8:16:32:64-S128"
target triple = "x86_64-pc-linux-gnu"

%"class.std::ios_base::Init" = type { i8 }
%"class.std::basic_istream" = type { i32 (...)**, i64, %"class.std::basic_ios" }
%"class.std::basic_ios" = type { %"class.std::ios_base", %"class.std::basic_ostream"*, i8, i8, %"class.std::basic_streambuf"*, %"class.std::ctype"*, %"class.std::num_put"*, %"class.std::num_get"* }
%"class.std::ios_base" = type { i32 (...)**, i64, i64, i32, i32, i32, %"struct.std::ios_base::_Callback_list"*, %"struct.std::ios_base::_Words", [8 x %"struct.std::ios_base::_Words"], i32, %"struct.std::ios_base::_Words"*, %"class.std::locale" }
%"struct.std::ios_base::_Callback_list" = type { %"struct.std::ios_base::_Callback_list"*, void (i32, %"class.std::ios_base"*, i32)*, i32, i32 }
%"struct.std::ios_base::_Words" = type { i8*, i64 }
%"class.std::locale" = type { %"class.std::locale::_Impl"* }
%"class.std::locale::_Impl" = type { i32, %"class.std::locale::facet"**, i64, %"class.std::locale::facet"**, i8** }
%"class.std::locale::facet" = type <{ i32 (...)**, i32, [4 x i8] }>
%"class.std::basic_ostream" = type { i32 (...)**, %"class.std::basic_ios" }
%"class.std::basic_streambuf" = type { i32 (...)**, i8*, i8*, i8*, i8*, i8*, i8*, %"class.std::locale" }
%"class.std::ctype" = type <{ %"class.std::locale::facet.base", [4 x i8], %struct.__locale_struct*, i8, [7 x i8], i32*, i32*, i16*, i8, [256 x i8], [256 x i8], i8, [6 x i8] }>
%"class.std::locale::facet.base" = type <{ i32 (...)**, i32 }>
%struct.__locale_struct = type { [13 x %struct.__locale_data*], i16*, i32*, i32*, [13 x i8*] }
%struct.__locale_data = type opaque
%"class.std::num_put" = type { %"class.std::locale::facet.base", [4 x i8] }
%"class.std::num_get" = type { %"class.std::locale::facet.base", [4 x i8] }

@_ZStL8__ioinit = internal global %"class.std::ios_base::Init" zeroinitializer, align 1
@__dso_handle = external hidden global i8
@_ZSt3cin = external global %"class.std::basic_istream", align 8
@_ZSt4cout = external global %"class.std::basic_ostream", align 8
@llvm.global_ctors = appending global [1 x { i32, void ()*, i8* }] [{ i32, void ()*, i8* } { i32 65535, void ()* @_GLOBAL__sub_I_137.cpp, i8* null }]

declare void @_ZNSt8ios_base4InitC1Ev(%"class.std::ios_base::Init"* nonnull align 1 dereferenceable(1)) unnamed_addr #0

; Function Attrs: nounwind
declare void @_ZNSt8ios_base4InitD1Ev(%"class.std::ios_base::Init"* nonnull align 1 dereferenceable(1)) unnamed_addr #1

; Function Attrs: nofree nounwind
declare i32 @__cxa_atexit(void (i8*)*, i8*, i8*) local_unnamed_addr #2

; Function Attrs: mustprogress norecurse sspstrong uwtable
define dso_local i32 @main() local_unnamed_addr #3 {
  %1 = alloca i32, align 4
  %2 = alloca i32, align 4
  %3 = alloca [100 x [100 x i32]], align 16
  %4 = bitcast i32* %1 to i8*
  call void @llvm.lifetime.start.p0i8(i64 4, i8* nonnull %4) #7
  %5 = bitcast i32* %2 to i8*
  call void @llvm.lifetime.start.p0i8(i64 4, i8* nonnull %5) #7
  %6 = bitcast [100 x [100 x i32]]* %3 to i8*
  call void @llvm.lifetime.start.p0i8(i64 40000, i8* nonnull %6) #7
  %7 = call nonnull align 8 dereferenceable(16) %"class.std::basic_istream"* @_ZNSirsERi(%"class.std::basic_istream"* nonnull align 8 dereferenceable(16) @_ZSt3cin, i32* nonnull align 4 dereferenceable(4) %1)
  %8 = call nonnull align 8 dereferenceable(16) %"class.std::basic_istream"* @_ZNSirsERi(%"class.std::basic_istream"* nonnull align 8 dereferenceable(16) %7, i32* nonnull align 4 dereferenceable(4) %2)
  %9 = load i32, i32* %1, align 4, !tbaa !5
  %10 = add nsw i32 %9, -1
  %11 = load i32, i32* %2, align 4, !tbaa !5
  %12 = add nsw i32 %11, -1
  %13 = icmp sgt i32 %9, 0
  %14 = icmp sgt i32 %11, 0
  %15 = select i1 %13, i1 %14, i1 false
  br i1 %15, label %16, label %21

16:                                               ; preds = %0, %36
  %17 = phi i32 [ %37, %36 ], [ %9, %0 ]
  %18 = phi i32 [ %38, %36 ], [ %11, %0 ]
  %19 = phi i64 [ %39, %36 ], [ 0, %0 ]
  %20 = icmp sgt i32 %18, 0
  br i1 %20, label %26, label %36

21:                                               ; preds = %36, %0
  %22 = phi i32 [ %11, %0 ], [ %38, %36 ]
  %23 = phi i32 [ %9, %0 ], [ %37, %36 ]
  %24 = mul nsw i32 %22, %23
  %25 = icmp sgt i32 %24, 0
  br i1 %25, label %42, label %126

26:                                               ; preds = %16, %26
  %27 = phi i64 [ %30, %26 ], [ 0, %16 ]
  %28 = getelementptr inbounds [100 x [100 x i32]], [100 x [100 x i32]]* %3, i64 0, i64 %19, i64 %27
  %29 = call nonnull align 8 dereferenceable(16) %"class.std::basic_istream"* @_ZNSirsERi(%"class.std::basic_istream"* nonnull align 8 dereferenceable(16) @_ZSt3cin, i32* nonnull align 4 dereferenceable(4) %28)
  %30 = add nuw nsw i64 %27, 1
  %31 = load i32, i32* %2, align 4, !tbaa !5
  %32 = sext i32 %31 to i64
  %33 = icmp slt i64 %30, %32
  br i1 %33, label %26, label %34, !llvm.loop !9

34:                                               ; preds = %26
  %35 = load i32, i32* %1, align 4, !tbaa !5
  br label %36

36:                                               ; preds = %34, %16
  %37 = phi i32 [ %35, %34 ], [ %17, %16 ]
  %38 = phi i32 [ %31, %34 ], [ %18, %16 ]
  %39 = add nuw nsw i64 %19, 1
  %40 = sext i32 %37 to i64
  %41 = icmp slt i64 %39, %40
  br i1 %41, label %16, label %21, !llvm.loop !11

42:                                               ; preds = %21, %113
  %43 = phi i32 [ %120, %113 ], [ 0, %21 ]
  %44 = phi i32 [ %119, %113 ], [ 0, %21 ]
  %45 = phi i32 [ %118, %113 ], [ %12, %21 ]
  %46 = phi i32 [ %117, %113 ], [ 0, %21 ]
  %47 = phi i32 [ %116, %113 ], [ %10, %21 ]
  %48 = phi i32 [ %115, %113 ], [ 0, %21 ]
  %49 = phi i32 [ %114, %113 ], [ 1, %21 ]
  %50 = phi i32 [ %121, %113 ], [ 0, %21 ]
  %51 = sext i32 %43 to i64
  %52 = sext i32 %44 to i64
  %53 = getelementptr inbounds [100 x [100 x i32]], [100 x [100 x i32]]* %3, i64 0, i64 %51, i64 %52
  %54 = load i32, i32* %53, align 4, !tbaa !5
  %55 = call nonnull align 8 dereferenceable(8) %"class.std::basic_ostream"* @_ZNSolsEi(%"class.std::basic_ostream"* nonnull align 8 dereferenceable(8) @_ZSt4cout, i32 %54)
  %56 = bitcast %"class.std::basic_ostream"* %55 to i8**
  %57 = load i8*, i8** %56, align 8, !tbaa !13
  %58 = getelementptr i8, i8* %57, i64 -24
  %59 = bitcast i8* %58 to i64*
  %60 = load i64, i64* %59, align 8
  %61 = bitcast %"class.std::basic_ostream"* %55 to i8*
  %62 = add nsw i64 %60, 240
  %63 = getelementptr inbounds i8, i8* %61, i64 %62
  %64 = bitcast i8* %63 to %"class.std::ctype"**
  %65 = load %"class.std::ctype"*, %"class.std::ctype"** %64, align 8, !tbaa !15
  %66 = icmp eq %"class.std::ctype"* %65, null
  br i1 %66, label %67, label %68

67:                                               ; preds = %42
  call void @_ZSt16__throw_bad_castv() #8
  unreachable

68:                                               ; preds = %42
  %69 = getelementptr inbounds %"class.std::ctype", %"class.std::ctype"* %65, i64 0, i32 8
  %70 = load i8, i8* %69, align 8, !tbaa !19
  %71 = icmp eq i8 %70, 0
  br i1 %71, label %75, label %72

72:                                               ; preds = %68
  %73 = getelementptr inbounds %"class.std::ctype", %"class.std::ctype"* %65, i64 0, i32 9, i64 10
  %74 = load i8, i8* %73, align 1, !tbaa !21
  br label %81

75:                                               ; preds = %68
  call void @_ZNKSt5ctypeIcE13_M_widen_initEv(%"class.std::ctype"* nonnull align 8 dereferenceable(570) %65)
  %76 = bitcast %"class.std::ctype"* %65 to i8 (%"class.std::ctype"*, i8)***
  %77 = load i8 (%"class.std::ctype"*, i8)**, i8 (%"class.std::ctype"*, i8)*** %76, align 8, !tbaa !13
  %78 = getelementptr inbounds i8 (%"class.std::ctype"*, i8)*, i8 (%"class.std::ctype"*, i8)** %77, i64 6
  %79 = load i8 (%"class.std::ctype"*, i8)*, i8 (%"class.std::ctype"*, i8)** %78, align 8
  %80 = call signext i8 %79(%"class.std::ctype"* nonnull align 8 dereferenceable(570) %65, i8 signext 10)
  br label %81

81:                                               ; preds = %72, %75
  %82 = phi i8 [ %74, %72 ], [ %80, %75 ]
  %83 = call nonnull align 8 dereferenceable(8) %"class.std::basic_ostream"* @_ZNSo3putEc(%"class.std::basic_ostream"* nonnull align 8 dereferenceable(8) %55, i8 signext %82)
  %84 = call nonnull align 8 dereferenceable(8) %"class.std::basic_ostream"* @_ZNSo5flushEv(%"class.std::basic_ostream"* nonnull align 8 dereferenceable(8) %83)
  switch i32 %49, label %106 [
    i32 1, label %85
    i32 2, label %92
    i32 3, label %99
  ]

85:                                               ; preds = %81
  %86 = icmp slt i32 %44, %45
  br i1 %86, label %90, label %87

87:                                               ; preds = %85
  %88 = add nsw i32 %43, 1
  %89 = add nsw i32 %48, 1
  br label %113

90:                                               ; preds = %85
  %91 = add nsw i32 %44, 1
  br label %113

92:                                               ; preds = %81
  %93 = icmp slt i32 %43, %47
  br i1 %93, label %97, label %94

94:                                               ; preds = %92
  %95 = add nsw i32 %44, -1
  %96 = add nsw i32 %45, -1
  br label %113

97:                                               ; preds = %92
  %98 = add nsw i32 %43, 1
  br label %113

99:                                               ; preds = %81
  %100 = icmp sgt i32 %44, %46
  br i1 %100, label %104, label %101

101:                                              ; preds = %99
  %102 = add nsw i32 %43, -1
  %103 = add nsw i32 %47, -1
  br label %113

104:                                              ; preds = %99
  %105 = add nsw i32 %44, -1
  br label %113

106:                                              ; preds = %81
  %107 = icmp sgt i32 %43, %48
  br i1 %107, label %111, label %108

108:                                              ; preds = %106
  %109 = add nsw i32 %44, 1
  %110 = add nsw i32 %46, 1
  br label %113

111:                                              ; preds = %106
  %112 = add nsw i32 %43, -1
  br label %113

113:                                              ; preds = %90, %87, %104, %101, %111, %108, %94, %97
  %114 = phi i32 [ 2, %87 ], [ 1, %90 ], [ 3, %94 ], [ 2, %97 ], [ 4, %101 ], [ 3, %104 ], [ 1, %108 ], [ %49, %111 ]
  %115 = phi i32 [ %89, %87 ], [ %48, %90 ], [ %48, %94 ], [ %48, %97 ], [ %48, %101 ], [ %48, %104 ], [ %48, %108 ], [ %48, %111 ]
  %116 = phi i32 [ %47, %87 ], [ %47, %90 ], [ %47, %94 ], [ %47, %97 ], [ %103, %101 ], [ %47, %104 ], [ %47, %108 ], [ %47, %111 ]
  %117 = phi i32 [ %46, %87 ], [ %46, %90 ], [ %46, %94 ], [ %46, %97 ], [ %46, %101 ], [ %46, %104 ], [ %110, %108 ], [ %46, %111 ]
  %118 = phi i32 [ %45, %87 ], [ %45, %90 ], [ %96, %94 ], [ %45, %97 ], [ %45, %101 ], [ %45, %104 ], [ %45, %108 ], [ %45, %111 ]
  %119 = phi i32 [ %44, %87 ], [ %91, %90 ], [ %95, %94 ], [ %44, %97 ], [ %44, %101 ], [ %105, %104 ], [ %109, %108 ], [ %44, %111 ]
  %120 = phi i32 [ %88, %87 ], [ %43, %90 ], [ %43, %94 ], [ %98, %97 ], [ %102, %101 ], [ %43, %104 ], [ %43, %108 ], [ %112, %111 ]
  %121 = add nuw nsw i32 %50, 1
  %122 = load i32, i32* %1, align 4, !tbaa !5
  %123 = load i32, i32* %2, align 4, !tbaa !5
  %124 = mul nsw i32 %123, %122
  %125 = icmp slt i32 %121, %124
  br i1 %125, label %42, label %126, !llvm.loop !22

126:                                              ; preds = %113, %21
  call void @llvm.lifetime.end.p0i8(i64 40000, i8* nonnull %6) #7
  call void @llvm.lifetime.end.p0i8(i64 4, i8* nonnull %5) #7
  call void @llvm.lifetime.end.p0i8(i64 4, i8* nonnull %4) #7
  ret i32 0
}

; Function Attrs: argmemonly mustprogress nofree nosync nounwind willreturn
declare void @llvm.lifetime.start.p0i8(i64 immarg, i8* nocapture) #4

declare nonnull align 8 dereferenceable(16) %"class.std::basic_istream"* @_ZNSirsERi(%"class.std::basic_istream"* nonnull align 8 dereferenceable(16), i32* nonnull align 4 dereferenceable(4)) local_unnamed_addr #0

declare nonnull align 8 dereferenceable(8) %"class.std::basic_ostream"* @_ZNSolsEi(%"class.std::basic_ostream"* nonnull align 8 dereferenceable(8), i32) local_unnamed_addr #0

; Function Attrs: argmemonly mustprogress nofree nosync nounwind willreturn
declare void @llvm.lifetime.end.p0i8(i64 immarg, i8* nocapture) #4

declare nonnull align 8 dereferenceable(8) %"class.std::basic_ostream"* @_ZNSo3putEc(%"class.std::basic_ostream"* nonnull align 8 dereferenceable(8), i8 signext) local_unnamed_addr #0

declare nonnull align 8 dereferenceable(8) %"class.std::basic_ostream"* @_ZNSo5flushEv(%"class.std::basic_ostream"* nonnull align 8 dereferenceable(8)) local_unnamed_addr #0

; Function Attrs: noreturn
declare void @_ZSt16__throw_bad_castv() local_unnamed_addr #5

declare void @_ZNKSt5ctypeIcE13_M_widen_initEv(%"class.std::ctype"* nonnull align 8 dereferenceable(570)) local_unnamed_addr #0

; Function Attrs: sspstrong uwtable
define internal void @_GLOBAL__sub_I_137.cpp() #6 section ".text.startup" {
  tail call void @_ZNSt8ios_base4InitC1Ev(%"class.std::ios_base::Init"* nonnull align 1 dereferenceable(1) @_ZStL8__ioinit)
  %1 = tail call i32 @__cxa_atexit(void (i8*)* bitcast (void (%"class.std::ios_base::Init"*)* @_ZNSt8ios_base4InitD1Ev to void (i8*)*), i8* getelementptr inbounds (%"class.std::ios_base::Init", %"class.std::ios_base::Init"* @_ZStL8__ioinit, i64 0, i32 0), i8* nonnull @__dso_handle) #7
  ret void
}


!llvm.module.flags = !{!0, !1, !2, !3}
!llvm.ident = !{!4}

!0 = !{i32 1, !"wchar_size", i32 4}
!1 = !{i32 7, !"PIC Level", i32 2}
!2 = !{i32 7, !"PIE Level", i32 2}
!3 = !{i32 7, !"uwtable", i32 1}
!4 = !{!"clang version 13.0.0"}
!5 = !{!6, !6, i64 0}
!6 = !{!"int", !7, i64 0}
!7 = !{!"omnipotent char", !8, i64 0}
!8 = !{!"Simple C++ TBAA"}
!9 = distinct !{!9, !10}
!10 = !{!"llvm.loop.mustprogress"}
!11 = distinct !{!11, !10, !12}
!12 = !{!"llvm.loop.unswitch.partial.disable"}
!13 = !{!14, !14, i64 0}
!14 = !{!"vtable pointer", !8, i64 0}
!15 = !{!16, !17, i64 240}
!16 = !{!"_ZTSSt9basic_iosIcSt11char_traitsIcEE", !17, i64 216, !7, i64 224, !18, i64 225, !17, i64 232, !17, i64 240, !17, i64 248, !17, i64 256}
!17 = !{!"any pointer", !7, i64 0}
!18 = !{!"bool", !7, i64 0}
!19 = !{!20, !7, i64 56}
!20 = !{!"_ZTSSt5ctypeIcE", !17, i64 16, !18, i64 24, !17, i64 32, !17, i64 40, !17, i64 48, !7, i64 56, !7, i64 57, !7, i64 313, !7, i64 569}
!21 = !{!7, !7, i64 0}
!22 = distinct !{!22, !10}
